target datalayout = "e-m:e-p270:32:32-p271:32:32-p272:64:64-i64:64-i128:128-f80:128-n8:16:32:64-S128"
target triple = "x86_64-pc-linux-gnu"

%struct.cli_clamav_intel = type { ptr, ptr, ptr, i32, i32, i32, i32, i64, ptr, %union.pthread_mutex_t }
%union.pthread_mutex_t = type { %struct.__pthread_mutex_s }
%struct.__pthread_mutex_s = type { i32, i32, i32, i32, i32, i16, i16, %struct.__pthread_internal_list }
%struct.__pthread_internal_list = type { ptr, ptr }
%struct.cl_engine = type { i32, i32, i32, [2 x i32], i32, i32, i32, ptr, i32, i64, i32, i32, i64, i64, i32, i32, i32, i32, ptr, ptr, ptr, ptr, ptr, ptr, ptr, ptr, ptr, ptr, ptr, ptr, ptr, ptr, ptr, ptr, ptr, ptr, ptr, i64, ptr, %struct.crtmgr, ptr, ptr, ptr, ptr, ptr, ptr, ptr, ptr, ptr, ptr, ptr, ptr, ptr, ptr, ptr, ptr, ptr, %struct.cli_all_bc, [7 x ptr], [7 x i32], i32, i32, i32, i32, i64, i64, i64, i64, i64, ptr, ptr, ptr, ptr, ptr, ptr, ptr, ptr, ptr, i32, i32, i32, i64, i64, i64, ptr }
%struct.crtmgr = type { ptr, i32 }
%struct.cli_all_bc = type { ptr, i32, ptr, %struct.cli_environment, i32 }
%struct.cli_environment = type { i32, i32, i32, i32, i32, i32, i32, [65 x i8], [65 x i8], [65 x i8], [65 x i8], [65 x i8], [65 x i8], [65 x i8], i8, i8, i8, i8, i8, i8, i8, i8, i8 }
%struct.cli_flagged_sample = type { ptr, [16 x i8], i32, i32, ptr, ptr, ptr }
%struct.cli_stats_sections = type { i64, ptr }
%struct.cli_section_hash = type { [16 x i8], i64 }

@.str.15 = private unnamed_addr constant [66 x i8] c"clamav_stats_decrement_count: locking mutex failed (err: %d): %s\0A\00", align 1
@.str.16 = private unnamed_addr constant [68 x i8] c"clamav_stats_decrement_count: unlocking mutex failed (err: %d): %s\0A\00", align 1

; Function Attrs: nounwind uwtable
define internal ptr @find_sample(ptr noundef %0, ptr noundef %1, ptr noundef %2, i64 noundef %3, ptr noundef %4) #0 {
  %6 = alloca ptr, align 8
  %7 = alloca ptr, align 8
  %8 = alloca ptr, align 8
  %9 = alloca ptr, align 8
  %10 = alloca i64, align 8
  %11 = alloca ptr, align 8
  %12 = alloca ptr, align 8
  %13 = alloca i64, align 8
  %14 = alloca i32, align 4
  store ptr %0, ptr %7, align 8
  store ptr %1, ptr %8, align 8
  store ptr %2, ptr %9, align 8
  store i64 %3, ptr %10, align 8
  store ptr %4, ptr %11, align 8
  %15 = load ptr, ptr %7, align 8
  %16 = getelementptr inbounds %struct.cli_clamav_intel, ptr %15, i32 0, i32 2
  %17 = load ptr, ptr %16, align 8
  store ptr %17, ptr %12, align 8
  br label %18

18:                                               ; preds = %150, %5
  %19 = load ptr, ptr %12, align 8
  %20 = icmp ne ptr %19, null
  br i1 %20, label %21, label %154

21:                                               ; preds = %18
  store i32 0, ptr %14, align 4
  %22 = load ptr, ptr %12, align 8
  %23 = getelementptr inbounds %struct.cli_flagged_sample, ptr %22, i32 0, i32 2
  %24 = load i32, ptr %23, align 8
  %25 = zext i32 %24 to i64
  %26 = load i64, ptr %10, align 8
  %27 = icmp ne i64 %25, %26
  br i1 %27, label %28, label %29

28:                                               ; preds = %21
  br label %150

29:                                               ; preds = %21
  %30 = load ptr, ptr %12, align 8
  %31 = getelementptr inbounds %struct.cli_flagged_sample, ptr %30, i32 0, i32 1
  %32 = getelementptr inbounds [16 x i8], ptr %31, i64 0, i64 0
  %33 = load ptr, ptr %9, align 8
  %34 = call i32 @memcmp(ptr noundef %32, ptr noundef %33, i64 noundef 16) #10
  %35 = icmp ne i32 %34, 0
  br i1 %35, label %36, label %37

36:                                               ; preds = %29
  br label %150

37:                                               ; preds = %29
  %38 = load ptr, ptr %8, align 8
  %39 = icmp ne ptr %38, null
  br i1 %39, label %42, label %40

40:                                               ; preds = %37
  %41 = load ptr, ptr %12, align 8
  store ptr %41, ptr %6, align 8
  br label %155

42:                                               ; preds = %37
  %43 = load ptr, ptr %11, align 8
  %44 = icmp ne ptr %43, null
  br i1 %44, label %45, label %119

45:                                               ; preds = %42
  %46 = load ptr, ptr %12, align 8
  %47 = getelementptr inbounds %struct.cli_flagged_sample, ptr %46, i32 0, i32 4
  %48 = load ptr, ptr %47, align 8
  %49 = icmp ne ptr %48, null
  br i1 %49, label %50, label %119

50:                                               ; preds = %45
  %51 = load ptr, ptr %11, align 8
  %52 = getelementptr inbounds %struct.cli_stats_sections, ptr %51, i32 0, i32 0
  %53 = load i64, ptr %52, align 8
  %54 = load ptr, ptr %12, align 8
  %55 = getelementptr inbounds %struct.cli_flagged_sample, ptr %54, i32 0, i32 4
  %56 = load ptr, ptr %55, align 8
  %57 = getelementptr inbounds %struct.cli_stats_sections, ptr %56, i32 0, i32 0
  %58 = load i64, ptr %57, align 8
  %59 = icmp eq i64 %53, %58
  br i1 %59, label %60, label %118

60:                                               ; preds = %50
  store i64 0, ptr %13, align 8
  br label %61

61:                                               ; preds = %107, %60
  %62 = load i64, ptr %13, align 8
  %63 = load ptr, ptr %11, align 8
  %64 = getelementptr inbounds %struct.cli_stats_sections, ptr %63, i32 0, i32 0
  %65 = load i64, ptr %64, align 8
  %66 = icmp ult i64 %62, %65
  br i1 %66, label %67, label %110

67:                                               ; preds = %61
  %68 = load ptr, ptr %11, align 8
  %69 = getelementptr inbounds %struct.cli_stats_sections, ptr %68, i32 0, i32 1
  %70 = load ptr, ptr %69, align 8
  %71 = load i64, ptr %13, align 8
  %72 = getelementptr inbounds %struct.cli_section_hash, ptr %70, i64 %71
  %73 = getelementptr inbounds %struct.cli_section_hash, ptr %72, i32 0, i32 1
  %74 = load i64, ptr %73, align 8
  %75 = load ptr, ptr %12, align 8
  %76 = getelementptr inbounds %struct.cli_flagged_sample, ptr %75, i32 0, i32 4
  %77 = load ptr, ptr %76, align 8
  %78 = getelementptr inbounds %struct.cli_stats_sections, ptr %77, i32 0, i32 1
  %79 = load ptr, ptr %78, align 8
  %80 = load i64, ptr %13, align 8
  %81 = getelementptr inbounds %struct.cli_section_hash, ptr %79, i64 %80
  %82 = getelementptr inbounds %struct.cli_section_hash, ptr %81, i32 0, i32 1
  %83 = load i64, ptr %82, align 8
  %84 = icmp eq i64 %74, %83
  br i1 %84, label %85, label %106

85:                                               ; preds = %67
  %86 = load ptr, ptr %11, align 8
  %87 = getelementptr inbounds %struct.cli_stats_sections, ptr %86, i32 0, i32 1
  %88 = load ptr, ptr %87, align 8
  %89 = load i64, ptr %13, align 8
  %90 = getelementptr inbounds %struct.cli_section_hash, ptr %88, i64 %89
  %91 = getelementptr inbounds %struct.cli_section_hash, ptr %90, i32 0, i32 0
  %92 = getelementptr inbounds [16 x i8], ptr %91, i64 0, i64 0
  %93 = load ptr, ptr %12, align 8
  %94 = getelementptr inbounds %struct.cli_flagged_sample, ptr %93, i32 0, i32 4
  %95 = load ptr, ptr %94, align 8
  %96 = getelementptr inbounds %struct.cli_stats_sections, ptr %95, i32 0, i32 1
  %97 = load ptr, ptr %96, align 8
  %98 = load i64, ptr %13, align 8
  %99 = getelementptr inbounds %struct.cli_section_hash, ptr %97, i64 %98
  %100 = getelementptr inbounds %struct.cli_section_hash, ptr %99, i32 0, i32 0
  %101 = getelementptr inbounds [16 x i8], ptr %100, i64 0, i64 0
  %102 = call i32 @memcmp(ptr noundef %92, ptr noundef %101, i64 noundef 16) #10
  %103 = icmp ne i32 %102, 0
  br i1 %103, label %104, label %105

104:                                              ; preds = %85
  br label %110

105:                                              ; preds = %85
  br label %106

106:                                              ; preds = %105, %67
  br label %107

107:                                              ; preds = %106
  %108 = load i64, ptr %13, align 8
  %109 = add i64 %108, 1
  store i64 %109, ptr %13, align 8
  br label %61

110:                                              ; preds = %104, %61
  %111 = load i64, ptr %13, align 8
  %112 = load ptr, ptr %11, align 8
  %113 = getelementptr inbounds %struct.cli_stats_sections, ptr %112, i32 0, i32 0
  %114 = load i64, ptr %113, align 8
  %115 = icmp eq i64 %111, %114
  br i1 %115, label %116, label %117

116:                                              ; preds = %110
  store i32 1, ptr %14, align 4
  br label %117

117:                                              ; preds = %116, %110
  br label %118

118:                                              ; preds = %117, %50
  br label %120

119:                                              ; preds = %45, %42
  store i32 1, ptr %14, align 4
  br label %120

120:                                              ; preds = %119, %118
  %121 = load i32, ptr %14, align 4
  %122 = icmp ne i32 %121, 0
  br i1 %122, label %123, label %149

123:                                              ; preds = %120
  store i64 0, ptr %13, align 8
  br label %124

124:                                              ; preds = %145, %123
  %125 = load ptr, ptr %12, align 8
  %126 = getelementptr inbounds %struct.cli_flagged_sample, ptr %125, i32 0, i32 0
  %127 = load ptr, ptr %126, align 8
  %128 = load i64, ptr %13, align 8
  %129 = getelementptr inbounds ptr, ptr %127, i64 %128
  %130 = load ptr, ptr %129, align 8
  %131 = icmp ne ptr %130, null
  br i1 %131, label %132, label %148

132:                                              ; preds = %124
  %133 = load ptr, ptr %12, align 8
  %134 = getelementptr inbounds %struct.cli_flagged_sample, ptr %133, i32 0, i32 0
  %135 = load ptr, ptr %134, align 8
  %136 = load i64, ptr %13, align 8
  %137 = getelementptr inbounds ptr, ptr %135, i64 %136
  %138 = load ptr, ptr %137, align 8
  %139 = load ptr, ptr %8, align 8
  %140 = call i32 @strcmp(ptr noundef %138, ptr noundef %139) #10
  %141 = icmp ne i32 %140, 0
  br i1 %141, label %144, label %142

142:                                              ; preds = %132
  %143 = load ptr, ptr %12, align 8
  store ptr %143, ptr %6, align 8
  br label %155

144:                                              ; preds = %132
  br label %145

145:                                              ; preds = %144
  %146 = load i64, ptr %13, align 8
  %147 = add i64 %146, 1
  store i64 %147, ptr %13, align 8
  br label %124

148:                                              ; preds = %124
  br label %149

149:                                              ; preds = %148, %120
  br label %150

150:                                              ; preds = %149, %36, %28
  %151 = load ptr, ptr %12, align 8
  %152 = getelementptr inbounds %struct.cli_flagged_sample, ptr %151, i32 0, i32 6
  %153 = load ptr, ptr %152, align 8
  store ptr %153, ptr %12, align 8
  br label %18

154:                                              ; preds = %18
  store ptr null, ptr %6, align 8
  br label %155

155:                                              ; preds = %154, %142, %40
  %156 = load ptr, ptr %6, align 8
  ret ptr %156
}

; Function Attrs: nounwind uwtable
define void @clamav_stats_decrement_count(ptr noundef %0, ptr noundef %1, i64 noundef %2, ptr noundef %3) #0 {
  %5 = alloca ptr, align 8
  %6 = alloca ptr, align 8
  %7 = alloca i64, align 8
  %8 = alloca ptr, align 8
  %9 = alloca ptr, align 8
  %10 = alloca ptr, align 8
  %11 = alloca i32, align 4
  store ptr %0, ptr %5, align 8
  store ptr %1, ptr %6, align 8
  store i64 %2, ptr %7, align 8
  store ptr %3, ptr %8, align 8
  %12 = load ptr, ptr %8, align 8
  store ptr %12, ptr %9, align 8
  %13 = load ptr, ptr %9, align 8
  %14 = icmp ne ptr %13, null
  br i1 %14, label %16, label %15

15:                                               ; preds = %4
  br label %79

16:                                               ; preds = %4
  %17 = load ptr, ptr %9, align 8
  %18 = getelementptr inbounds %struct.cli_clamav_intel, ptr %17, i32 0, i32 9
  %19 = call i32 @pthread_mutex_lock(ptr noundef %18) #7
  store i32 %19, ptr %11, align 4
  %20 = load i32, ptr %11, align 4
  %21 = icmp ne i32 %20, 0
  br i1 %21, label %22, label %26

22:                                               ; preds = %16
  %23 = load i32, ptr %11, align 4
  %24 = load i32, ptr %11, align 4
  %25 = call ptr @strerror(i32 noundef %24) #7
  call void (ptr, ...) @cli_warnmsg(ptr noundef @.str.15, i32 noundef %23, ptr noundef %25)
  br label %79

26:                                               ; preds = %16
  %27 = load ptr, ptr %9, align 8
  %28 = load ptr, ptr %5, align 8
  %29 = load ptr, ptr %6, align 8
  %30 = load i64, ptr %7, align 8
  %31 = call ptr @find_sample(ptr noundef %27, ptr noundef %28, ptr noundef %29, i64 noundef %30, ptr noundef null)
  store ptr %31, ptr %10, align 8
  %32 = load ptr, ptr %10, align 8
  %33 = icmp ne ptr %32, null
  br i1 %33, label %35, label %34

34:                                               ; preds = %26
  br label %68

35:                                               ; preds = %26
  %36 = load ptr, ptr %10, align 8
  %37 = getelementptr inbounds %struct.cli_flagged_sample, ptr %36, i32 0, i32 3
  %38 = load i32, ptr %37, align 4
  %39 = icmp eq i32 %38, 1
  br i1 %39, label %40, label %63

40:                                               ; preds = %35
  %41 = load ptr, ptr %9, align 8
  %42 = getelementptr inbounds %struct.cli_clamav_intel, ptr %41, i32 0, i32 8
  %43 = load ptr, ptr %42, align 8
  %44 = getelementptr inbounds %struct.cl_engine, ptr %43, i32 0, i32 71
  %45 = load ptr, ptr %44, align 8
  %46 = icmp ne ptr %45, null
  br i1 %46, label %47, label %57

47:                                               ; preds = %40
  %48 = load ptr, ptr %9, align 8
  %49 = getelementptr inbounds %struct.cli_clamav_intel, ptr %48, i32 0, i32 8
  %50 = load ptr, ptr %49, align 8
  %51 = getelementptr inbounds %struct.cl_engine, ptr %50, i32 0, i32 71
  %52 = load ptr, ptr %51, align 8
  %53 = load ptr, ptr %5, align 8
  %54 = load ptr, ptr %6, align 8
  %55 = load i64, ptr %7, align 8
  %56 = load ptr, ptr %9, align 8
  call void %52(ptr noundef %53, ptr noundef %54, i64 noundef %55, ptr noundef %56)
  br label %62

57:                                               ; preds = %40
  %58 = load ptr, ptr %5, align 8
  %59 = load ptr, ptr %6, align 8
  %60 = load i64, ptr %7, align 8
  %61 = load ptr, ptr %9, align 8
  call void @clamav_stats_remove_sample(ptr noundef %58, ptr noundef %59, i64 noundef %60, ptr noundef %61)
  br label %62

62:                                               ; preds = %57, %47
  br label %68

63:                                               ; preds = %35
  %64 = load ptr, ptr %10, align 8
  %65 = getelementptr inbounds %struct.cli_flagged_sample, ptr %64, i32 0, i32 3
  %66 = load i32, ptr %65, align 4
  %67 = add i32 %66, -1
  store i32 %67, ptr %65, align 4
  br label %68

68:                                               ; preds = %63, %62, %34
  %69 = load ptr, ptr %9, align 8
  %70 = getelementptr inbounds %struct.cli_clamav_intel, ptr %69, i32 0, i32 9
  %71 = call i32 @pthread_mutex_unlock(ptr noundef %70) #7
  store i32 %71, ptr %11, align 4
  %72 = load i32, ptr %11, align 4
  %73 = icmp ne i32 %72, 0
  br i1 %73, label %74, label %78

74:                                               ; preds = %68
  %75 = load i32, ptr %11, align 4
  %76 = load i32, ptr %11, align 4
  %77 = call ptr @strerror(i32 noundef %76) #7
  call void (ptr, ...) @cli_warnmsg(ptr noundef @.str.16, i32 noundef %75, ptr noundef %77)
  br label %78

78:                                               ; preds = %74, %68
  br label %79

79:                                               ; preds = %78, %22, %15
  ret void
}