; Function Attrs: nounwind uwtable
define void @clamav_stats_decrement_count(ptr noundef %0, ptr noundef %1, i64 noundef %2, ptr noundef %3) local_unnamed_addr #0 {
  %.not = icmp eq ptr %3, null
  br i1 %.not, label %47, label %5

5:                                                ; preds = %4
  %6 = getelementptr inbounds nuw i8, ptr %3, i64 56
  %7 = tail call i32 @pthread_mutex_lock(ptr noundef nonnull %6) #13
  %.not31 = icmp eq i32 %7, 0
  br i1 %.not31, label %10, label %8

8:                                                ; preds = %5
  %9 = tail call ptr @strerror(i32 noundef %7) #13
  tail call void (ptr, ...) @cli_warnmsg(ptr noundef nonnull @.str.15, i32 noundef %7, ptr noundef %9) #13
  br label %47

10:                                               ; preds = %5
  %11 = getelementptr inbounds nuw i8, ptr %3, i64 16
  %.03563.i = load ptr, ptr %11, align 8
  %.not64.i = icmp eq ptr %.03563.i, null
  br i1 %.not64.i, label %find_sample.exit.thread, label %.lr.ph68.i

.lr.ph68.i:                                       ; preds = %10
  %.not43.i = icmp eq ptr %0, null
  br i1 %.not43.i, label %.lr.ph68.split.us.i, label %.lr.ph68.split.split.us.i

.lr.ph68.split.us.i:                              ; preds = %.lr.ph68.i, %.critedge.us.i
  %.03565.us.i = phi ptr [ %.035.us.i, %.critedge.us.i ], [ %.03563.i, %.lr.ph68.i ]
  %12 = getelementptr inbounds nuw i8, ptr %.03565.us.i, i64 24
  %13 = load i32, ptr %12, align 8
  %14 = zext i32 %13 to i64
  %.not41.us.i = icmp eq i64 %2, %14
  br i1 %.not41.us.i, label %15, label %.critedge.us.i

15:                                               ; preds = %.lr.ph68.split.us.i
  %16 = getelementptr inbounds nuw i8, ptr %.03565.us.i, i64 8
  %bcmp.us.i = tail call i32 @bcmp(ptr noundef nonnull dereferenceable(16) %16, ptr noundef nonnull readonly dereferenceable(16) %1, i64 16)
  %.not42.us.i = icmp eq i32 %bcmp.us.i, 0
  br i1 %.not42.us.i, label %find_sample.exit.thread37, label %.critedge.us.i

.critedge.us.i:                                   ; preds = %15, %.lr.ph68.split.us.i
  %17 = getelementptr inbounds nuw i8, ptr %.03565.us.i, i64 48
  %.035.us.i = load ptr, ptr %17, align 8
  %.not.us.i = icmp eq ptr %.035.us.i, null
  br i1 %.not.us.i, label %find_sample.exit.thread, label %.lr.ph68.split.us.i

.lr.ph68.split.split.us.i:                        ; preds = %.lr.ph68.i, %.critedge.us78.i
  %.03565.us74.i = phi ptr [ %.035.us79.i, %.critedge.us78.i ], [ %.03563.i, %.lr.ph68.i ]
  %18 = getelementptr inbounds nuw i8, ptr %.03565.us74.i, i64 24
  %19 = load i32, ptr %18, align 8
  %20 = zext i32 %19 to i64
  %.not41.us75.i = icmp eq i64 %2, %20
  br i1 %.not41.us75.i, label %21, label %.critedge.us78.i

21:                                               ; preds = %.lr.ph68.split.split.us.i
  %22 = getelementptr inbounds nuw i8, ptr %.03565.us74.i, i64 8
  %bcmp.us76.i = tail call i32 @bcmp(ptr noundef nonnull dereferenceable(16) %22, ptr noundef nonnull readonly dereferenceable(16) %1, i64 16)
  %.not42.us77.i = icmp eq i32 %bcmp.us76.i, 0
  br i1 %.not42.us77.i, label %.critedge52.us.i, label %.critedge.us78.i

.critedge52.us.i:                                 ; preds = %21
  %23 = load ptr, ptr %.03565.us74.i, align 8
  %24 = load ptr, ptr %23, align 8
  %.not4960.us.i = icmp eq ptr %24, null
  br i1 %.not4960.us.i, label %.critedge.us78.i, label %.lr.ph62.us.i

25:                                               ; preds = %.lr.ph62.us.i
  %26 = add i64 %.161.us.i, 1
  %27 = getelementptr inbounds ptr, ptr %23, i64 %26
  %28 = load ptr, ptr %27, align 8
  %.not49.us.i = icmp eq ptr %28, null
  br i1 %.not49.us.i, label %.critedge.us78.i, label %.lr.ph62.us.i

.lr.ph62.us.i:                                    ; preds = %.critedge52.us.i, %25
  %29 = phi ptr [ %28, %25 ], [ %24, %.critedge52.us.i ]
  %.161.us.i = phi i64 [ %26, %25 ], [ 0, %.critedge52.us.i ]
  %30 = tail call i32 @strcmp(ptr noundef nonnull dereferenceable(1) %29, ptr noundef nonnull readonly dereferenceable(1) %0) #16
  %.not50.us.i = icmp eq i32 %30, 0
  br i1 %.not50.us.i, label %find_sample.exit.thread37, label %25

.critedge.us78.i:                                 ; preds = %25, %.critedge52.us.i, %21, %.lr.ph68.split.split.us.i
  %31 = getelementptr inbounds nuw i8, ptr %.03565.us74.i, i64 48
  %.035.us79.i = load ptr, ptr %31, align 8
  %.not.us80.i = icmp eq ptr %.035.us79.i, null
  br i1 %.not.us80.i, label %find_sample.exit.thread, label %.lr.ph68.split.split.us.i

find_sample.exit.thread37:                        ; preds = %.lr.ph62.us.i, %15
  %.03556.i40 = phi ptr [ %.03565.us.i, %15 ], [ %.03565.us74.i, %.lr.ph62.us.i ]
  %32 = getelementptr inbounds nuw i8, ptr %.03556.i40, i64 28
  %33 = load i32, ptr %32, align 4
  %34 = icmp eq i32 %33, 1
  br i1 %34, label %35, label %42

35:                                               ; preds = %find_sample.exit.thread37
  %36 = getelementptr inbounds nuw i8, ptr %3, i64 48
  %37 = load ptr, ptr %36, align 8
  %38 = getelementptr inbounds nuw i8, ptr %37, i64 1096
  %39 = load ptr, ptr %38, align 8
  %.not33 = icmp eq ptr %39, null
  br i1 %.not33, label %41, label %40

40:                                               ; preds = %35
  tail call void %39(ptr noundef %0, ptr noundef %1, i64 noundef %2, ptr noundef nonnull %3) #13
  br label %find_sample.exit.thread

41:                                               ; preds = %35
  tail call void @clamav_stats_remove_sample(ptr noundef %0, ptr noundef %1, i64 noundef %2, ptr noundef nonnull %3)
  br label %find_sample.exit.thread

42:                                               ; preds = %find_sample.exit.thread37
  %43 = add i32 %33, -1
  store i32 %43, ptr %32, align 4
  br label %find_sample.exit.thread

find_sample.exit.thread:                          ; preds = %.critedge.us78.i, %.critedge.us.i, %10, %40, %41, %42
  %44 = tail call i32 @pthread_mutex_unlock(ptr noundef nonnull %6) #13
  %.not34 = icmp eq i32 %44, 0
  br i1 %.not34, label %47, label %45

45:                                               ; preds = %find_sample.exit.thread
  %46 = tail call ptr @strerror(i32 noundef %44) #13
  tail call void (ptr, ...) @cli_warnmsg(ptr noundef nonnull @.str.16, i32 noundef %44, ptr noundef %46) #13
  br label %47

47:                                               ; preds = %find_sample.exit.thread, %45, %4, %8
  ret void
}